ccopy_reg
_reconstructor
p0
(csklearn.linear_model.base
LinearRegression
p1
c__builtin__
object
p2
Ntp3
Rp4
(dp5
S'normalize'
p6
I00
sS'n_jobs'
p7
I-1
sS'rank_'
p8
I4
sS'fit_intercept'
p9
I01
sS'_residues'
p10
cnumpy.core.multiarray
scalar
p11
(cnumpy
dtype
p12
(S'f8'
p13
I0
I1
tp14
Rp15
(I3
S'<'
p16
NNNI-1
I-1
I0
tp17
bS'i\xe4\xe5>\xbf\xf9%A'
p18
tp19
Rp20
sS'singular_'
p21
cnumpy.core.multiarray
_reconstruct
p22
(cnumpy
ndarray
p23
(I0
tp24
S'b'
p25
tp26
Rp27
(I1
(I4
tp28
g15
I00
S'\x02\xaa\xe4B\xac7H@\x8f\xe3\x9a\xc6\xa8\x81A@3\x00\xc6sV\x822@\xff[.\xb0-\x97)@'
p29
tp30
bsS'coef_'
p31
g22
(g23
(I0
tp32
g25
tp33
Rp34
(I1
(I4
tp35
g15
I00
S"\xd7Tw'\x06\xa1c@\xc0B\xc5\x8b0\x80\xed?P\\\xed\x1c\x8d\xe1\xff?\xe4\xab\xed9\x9d'\x00\xc0"
p36
tp37
bsS'_sklearn_version'
p38
S'0.18.1'
p39
sS'copy_X'
p40
I01
sS'intercept_'
p41
g11
(g15
S'\x8e(\nu\xc8\x14\x82@'
p42
tp43
Rp44
sb.